target datalayout = "e-m:e-p270:32:32-p271:32:32-p272:64:64-i64:64-i128:128-f80:128-n8:16:32:64-S128"
target triple = "x86_64-pc-linux-gnu"

%struct.pmix_lock_t = type { i32, %struct.pmix_mutex_t, %union.pthread_cond_t, i8 }
%struct.pmix_mutex_t = type { %struct.pmix_object_t, %union.pthread_mutex_t }
%struct.pmix_object_t = type { %union.pthread_mutex_t, ptr, i32, %struct.pmix_tma }
%struct.pmix_tma = type { ptr, ptr, ptr, ptr, ptr, ptr, ptr, ptr }
%union.pthread_mutex_t = type { %struct.__pthread_mutex_s }
%struct.__pthread_mutex_s = type { i32, i32, i32, i32, i32, i16, i16, %struct.__pthread_internal_list }
%struct.__pthread_internal_list = type { ptr, ptr }
%union.pthread_cond_t = type { %struct.__pthread_cond_s }
%struct.__pthread_cond_s = type { %union.__atomic_wide_counter, %union.__atomic_wide_counter, [2 x i32], [2 x i32], i32, i32, [2 x i32] }
%union.__atomic_wide_counter = type { i64 }
%struct.pmix_value = type { i16, %union.anon }
%union.anon = type { %struct.pmix_envar_t }
%struct.pmix_envar_t = type { ptr, ptr, i8 }
%struct.timeval = type { i64, i64 }
%struct.pmix_list_t = type { %struct.pmix_object_t, %struct.pmix_list_item_t, i64 }
%struct.pmix_list_item_t = type { %struct.pmix_object_t, ptr, ptr, i32 }
%struct.pmix_cb_t = type { %struct.pmix_list_item_t, %struct.event, %struct.pmix_lock_t, i8, i32, i32, i8, %struct.pmix_buffer_t, %union.anon.9, i64, ptr, %struct.pmix_name_t, ptr, ptr, ptr, ptr, i64, ptr, i64, ptr, i8, i64, %struct.pmix_list_t, i8, ptr, i8, ptr, ptr }
%struct.event = type { %struct.event_callback, %union.anon.2, i32, ptr, %union.anon.4, i16, i16, %struct.timeval }
%struct.event_callback = type { %struct.anon.0, i16, i8, i8, %union.anon.1, ptr }
%struct.anon.0 = type { ptr, ptr }
%union.anon.1 = type { ptr }
%union.anon.2 = type { %struct.anon.3 }
%struct.anon.3 = type { ptr, ptr }
%union.anon.4 = type { %struct.anon.5 }
%struct.anon.5 = type { %struct.anon.6, %struct.timeval }
%struct.anon.6 = type { ptr, ptr }
%struct.pmix_buffer_t = type { %struct.pmix_object_t, i8, ptr, ptr, ptr, i64, i64 }
%union.anon.9 = type { ptr }
%struct.pmix_name_t = type { ptr, i32 }
%struct.pmix_info = type { [512 x i8], i32, %struct.pmix_value }
%struct.pmix_kval_t = type { %struct.pmix_list_item_t, ptr, ptr }
%struct.pmix_data_array = type { i16, i64, ptr }

; Function Attrs: inlinehint nounwind uwtable
define internal void @pmix_strncpy(ptr noundef %0, ptr noundef %1, i64 noundef %2) #2 {
  %4 = alloca ptr, align 8
  %5 = alloca ptr, align 8
  %6 = alloca i64, align 8
  %7 = alloca i64, align 8
  store ptr %0, ptr %4, align 8, !tbaa !8
  store ptr %1, ptr %5, align 8, !tbaa !8
  store i64 %2, ptr %6, align 8, !tbaa !12
  call void @llvm.lifetime.start.p0(i64 8, ptr %7) #11
  store i64 0, ptr %7, align 8, !tbaa !12
  br label %8

8:                                                ; preds = %22, %3
  %9 = load i64, ptr %7, align 8, !tbaa !12
  %10 = load i64, ptr %6, align 8, !tbaa !12
  %11 = icmp ult i64 %9, %10
  br i1 %11, label %12, label %29

12:                                               ; preds = %8
  %13 = load ptr, ptr %5, align 8, !tbaa !8
  %14 = load i8, ptr %13, align 1, !tbaa !78
  %15 = load ptr, ptr %4, align 8, !tbaa !8
  store i8 %14, ptr %15, align 1, !tbaa !78
  %16 = load ptr, ptr %5, align 8, !tbaa !8
  %17 = load i8, ptr %16, align 1, !tbaa !78
  %18 = sext i8 %17 to i32
  %19 = icmp eq i32 0, %18
  br i1 %19, label %20, label %21

20:                                               ; preds = %12
  br label %29

21:                                               ; preds = %12
  br label %22

22:                                               ; preds = %21
  %23 = load i64, ptr %7, align 8, !tbaa !12
  %24 = add i64 %23, 1
  store i64 %24, ptr %7, align 8, !tbaa !12
  %25 = load ptr, ptr %5, align 8, !tbaa !8
  %26 = getelementptr inbounds nuw i8, ptr %25, i32 1
  store ptr %26, ptr %5, align 8, !tbaa !8
  %27 = load ptr, ptr %4, align 8, !tbaa !8
  %28 = getelementptr inbounds nuw i8, ptr %27, i32 1
  store ptr %28, ptr %4, align 8, !tbaa !8
  br label %8, !llvm.loop !210

29:                                               ; preds = %20, %8
  %30 = load ptr, ptr %4, align 8, !tbaa !8
  store i8 0, ptr %30, align 1, !tbaa !78
  call void @llvm.lifetime.end.p0(i64 8, ptr %7) #11
  ret void
}

; Function Attrs: inlinehint nounwind uwtable
define internal ptr @pmix_list_get_first(ptr noundef %0) #2 {
  %2 = alloca ptr, align 8
  %3 = alloca ptr, align 8
  store ptr %0, ptr %2, align 8, !tbaa !191
  call void @llvm.lifetime.start.p0(i64 8, ptr %3) #11
  %4 = load ptr, ptr %2, align 8, !tbaa !191
  %5 = getelementptr inbounds nuw %struct.pmix_list_t, ptr %4, i32 0, i32 1
  %6 = getelementptr inbounds nuw %struct.pmix_list_item_t, ptr %5, i32 0, i32 1
  %7 = load ptr, ptr %6, align 8, !tbaa !194
  store ptr %7, ptr %3, align 8, !tbaa !195
  %8 = load ptr, ptr %3, align 8, !tbaa !195
  call void @llvm.lifetime.end.p0(i64 8, ptr %3) #11
  ret ptr %8
}

; Function Attrs: inlinehint nounwind uwtable
define internal i64 @pmix_list_get_size(ptr noundef %0) #2 {
  %2 = alloca ptr, align 8
  store ptr %0, ptr %2, align 8, !tbaa !191
  %3 = load ptr, ptr %2, align 8, !tbaa !191
  %4 = getelementptr inbounds nuw %struct.pmix_list_t, ptr %3, i32 0, i32 2
  %5 = load volatile i64, ptr %4, align 8, !tbaa !193
  ret i64 %5
}

; Function Attrs: nounwind uwtable
define internal i32 @process_values(ptr noundef %0) #0 {
  %2 = alloca i32, align 4
  %3 = alloca ptr, align 8
  %4 = alloca ptr, align 8
  %5 = alloca ptr, align 8
  %6 = alloca ptr, align 8
  %7 = alloca ptr, align 8
  %8 = alloca i64, align 8
  %9 = alloca i64, align 8
  %10 = alloca i32, align 4
  store ptr %0, ptr %3, align 8, !tbaa !55
  call void @llvm.lifetime.start.p0(i64 8, ptr %4) #11
  %11 = load ptr, ptr %3, align 8, !tbaa !55
  %12 = getelementptr inbounds nuw %struct.pmix_cb_t, ptr %11, i32 0, i32 22
  store ptr %12, ptr %4, align 8, !tbaa !191
  call void @llvm.lifetime.start.p0(i64 8, ptr %5) #11
  call void @llvm.lifetime.start.p0(i64 8, ptr %6) #11
  call void @llvm.lifetime.start.p0(i64 8, ptr %7) #11
  call void @llvm.lifetime.start.p0(i64 8, ptr %8) #11
  call void @llvm.lifetime.start.p0(i64 8, ptr %9) #11
  %13 = load ptr, ptr %3, align 8, !tbaa !55
  %14 = getelementptr inbounds nuw %struct.pmix_cb_t, ptr %13, i32 0, i32 12
  %15 = load ptr, ptr %14, align 8, !tbaa !75
  %16 = icmp ne ptr null, %15
  br i1 %16, label %17, label %31

17:                                               ; preds = %1
  %18 = load ptr, ptr %4, align 8, !tbaa !191
  %19 = call i64 @pmix_list_get_size(ptr noundef %18)
  %20 = icmp eq i64 1, %19
  br i1 %20, label %21, label %31

21:                                               ; preds = %17
  %22 = load ptr, ptr %4, align 8, !tbaa !191
  %23 = call ptr @pmix_list_get_first(ptr noundef %22)
  store ptr %23, ptr %5, align 8, !tbaa !55
  %24 = load ptr, ptr %5, align 8, !tbaa !55
  %25 = getelementptr inbounds nuw %struct.pmix_kval_t, ptr %24, i32 0, i32 2
  %26 = load ptr, ptr %25, align 8, !tbaa !164
  %27 = load ptr, ptr %3, align 8, !tbaa !55
  %28 = getelementptr inbounds nuw %struct.pmix_cb_t, ptr %27, i32 0, i32 13
  store ptr %26, ptr %28, align 8, !tbaa !84
  %29 = load ptr, ptr %5, align 8, !tbaa !55
  %30 = getelementptr inbounds nuw %struct.pmix_kval_t, ptr %29, i32 0, i32 2
  store ptr null, ptr %30, align 8, !tbaa !164
  store i32 0, ptr %2, align 4
  store i32 1, ptr %10, align 4
  br label %122

31:                                               ; preds = %17, %1
  %32 = call ptr @PMIx_Value_create(i64 noundef 1)
  store ptr %32, ptr %6, align 8, !tbaa !60
  %33 = load ptr, ptr %6, align 8, !tbaa !60
  %34 = icmp eq ptr null, %33
  br i1 %34, label %35, label %36

35:                                               ; preds = %31
  store i32 -32, ptr %2, align 4
  store i32 1, ptr %10, align 4
  br label %122

36:                                               ; preds = %31
  %37 = load ptr, ptr %6, align 8, !tbaa !60
  %38 = getelementptr inbounds nuw %struct.pmix_value, ptr %37, i32 0, i32 0
  store i16 39, ptr %38, align 8, !tbaa !122
  %39 = call noalias ptr @malloc(i64 noundef 24) #12
  %40 = load ptr, ptr %6, align 8, !tbaa !60
  %41 = getelementptr inbounds nuw %struct.pmix_value, ptr %40, i32 0, i32 1
  store ptr %39, ptr %41, align 8, !tbaa !78
  %42 = load ptr, ptr %6, align 8, !tbaa !60
  %43 = getelementptr inbounds nuw %struct.pmix_value, ptr %42, i32 0, i32 1
  %44 = load ptr, ptr %43, align 8, !tbaa !78
  %45 = icmp eq ptr null, %44
  br i1 %45, label %46, label %51

46:                                               ; preds = %36
  br label %47

47:                                               ; preds = %46
  %48 = load ptr, ptr %6, align 8, !tbaa !60
  call void @PMIx_Value_free(ptr noundef %48, i64 noundef 1)
  store ptr null, ptr %6, align 8, !tbaa !60
  br label %49

49:                                               ; preds = %47
  br label %50

50:                                               ; preds = %49
  store i32 -32, ptr %2, align 4
  store i32 1, ptr %10, align 4
  br label %122

51:                                               ; preds = %36
  %52 = load ptr, ptr %6, align 8, !tbaa !60
  %53 = getelementptr inbounds nuw %struct.pmix_value, ptr %52, i32 0, i32 1
  %54 = load ptr, ptr %53, align 8, !tbaa !78
  %55 = getelementptr inbounds nuw %struct.pmix_data_array, ptr %54, i32 0, i32 0
  store i16 24, ptr %55, align 8, !tbaa !197
  %56 = load ptr, ptr %6, align 8, !tbaa !60
  %57 = getelementptr inbounds nuw %struct.pmix_value, ptr %56, i32 0, i32 1
  %58 = load ptr, ptr %57, align 8, !tbaa !78
  %59 = getelementptr inbounds nuw %struct.pmix_data_array, ptr %58, i32 0, i32 1
  store i64 0, ptr %59, align 8, !tbaa !199
  %60 = load ptr, ptr %6, align 8, !tbaa !60
  %61 = getelementptr inbounds nuw %struct.pmix_value, ptr %60, i32 0, i32 1
  %62 = load ptr, ptr %61, align 8, !tbaa !78
  %63 = getelementptr inbounds nuw %struct.pmix_data_array, ptr %62, i32 0, i32 2
  store ptr null, ptr %63, align 8, !tbaa !200
  %64 = load ptr, ptr %4, align 8, !tbaa !191
  %65 = call i64 @pmix_list_get_size(ptr noundef %64)
  store i64 %65, ptr %8, align 8, !tbaa !12
  %66 = load i64, ptr %8, align 8, !tbaa !12
  %67 = call ptr @PMIx_Info_create(i64 noundef %66)
  store ptr %67, ptr %7, align 8, !tbaa !10
  %68 = load ptr, ptr %7, align 8, !tbaa !10
  %69 = icmp eq ptr null, %68
  br i1 %69, label %70, label %75

70:                                               ; preds = %51
  br label %71

71:                                               ; preds = %70
  %72 = load ptr, ptr %6, align 8, !tbaa !60
  call void @PMIx_Value_free(ptr noundef %72, i64 noundef 1)
  store ptr null, ptr %6, align 8, !tbaa !60
  br label %73

73:                                               ; preds = %71
  br label %74

74:                                               ; preds = %73
  store i32 -32, ptr %2, align 4
  store i32 1, ptr %10, align 4
  br label %122

75:                                               ; preds = %51
  store i64 0, ptr %9, align 8, !tbaa !12
  %76 = load ptr, ptr %4, align 8, !tbaa !191
  %77 = getelementptr inbounds nuw %struct.pmix_list_t, ptr %76, i32 0, i32 1
  %78 = getelementptr inbounds nuw %struct.pmix_list_item_t, ptr %77, i32 0, i32 1
  %79 = load ptr, ptr %78, align 8, !tbaa !194
  store ptr %79, ptr %5, align 8, !tbaa !55
  br label %80

80:                                               ; preds = %104, %75
  %81 = load ptr, ptr %5, align 8, !tbaa !55
  %82 = load ptr, ptr %4, align 8, !tbaa !191
  %83 = getelementptr inbounds nuw %struct.pmix_list_t, ptr %82, i32 0, i32 1
  %84 = icmp ne ptr %81, %83
  br i1 %84, label %85, label %108

85:                                               ; preds = %80
  %86 = load ptr, ptr %7, align 8, !tbaa !10
  %87 = load i64, ptr %9, align 8, !tbaa !12
  %88 = getelementptr inbounds nuw %struct.pmix_info, ptr %86, i64 %87
  %89 = getelementptr inbounds nuw %struct.pmix_info, ptr %88, i32 0, i32 0
  %90 = getelementptr inbounds [512 x i8], ptr %89, i64 0, i64 0
  %91 = load ptr, ptr %5, align 8, !tbaa !55
  %92 = getelementptr inbounds nuw %struct.pmix_kval_t, ptr %91, i32 0, i32 1
  %93 = load ptr, ptr %92, align 8, !tbaa !201
  call void @pmix_strncpy(ptr noundef %90, ptr noundef %93, i64 noundef 511)
  %94 = load ptr, ptr %7, align 8, !tbaa !10
  %95 = load i64, ptr %9, align 8, !tbaa !12
  %96 = getelementptr inbounds nuw %struct.pmix_info, ptr %94, i64 %95
  %97 = getelementptr inbounds nuw %struct.pmix_info, ptr %96, i32 0, i32 2
  %98 = load ptr, ptr %5, align 8, !tbaa !55
  %99 = getelementptr inbounds nuw %struct.pmix_kval_t, ptr %98, i32 0, i32 2
  %100 = load ptr, ptr %99, align 8, !tbaa !164
  %101 = call i32 @PMIx_Value_xfer(ptr noundef %97, ptr noundef %100)
  %102 = load i64, ptr %9, align 8, !tbaa !12
  %103 = add i64 %102, 1
  store i64 %103, ptr %9, align 8, !tbaa !12
  br label %104

104:                                              ; preds = %85
  %105 = load ptr, ptr %5, align 8, !tbaa !55
  %106 = getelementptr inbounds nuw %struct.pmix_list_item_t, ptr %105, i32 0, i32 1
  %107 = load ptr, ptr %106, align 8, !tbaa !180
  store ptr %107, ptr %5, align 8, !tbaa !55
  br label %80, !llvm.loop !202

108:                                              ; preds = %80
  %109 = load i64, ptr %8, align 8, !tbaa !12
  %110 = load ptr, ptr %6, align 8, !tbaa !60
  %111 = getelementptr inbounds nuw %struct.pmix_value, ptr %110, i32 0, i32 1
  %112 = load ptr, ptr %111, align 8, !tbaa !78
  %113 = getelementptr inbounds nuw %struct.pmix_data_array, ptr %112, i32 0, i32 1
  store i64 %109, ptr %113, align 8, !tbaa !199
  %114 = load ptr, ptr %7, align 8, !tbaa !10
  %115 = load ptr, ptr %6, align 8, !tbaa !60
  %116 = getelementptr inbounds nuw %struct.pmix_value, ptr %115, i32 0, i32 1
  %117 = load ptr, ptr %116, align 8, !tbaa !78
  %118 = getelementptr inbounds nuw %struct.pmix_data_array, ptr %117, i32 0, i32 2
  store ptr %114, ptr %118, align 8, !tbaa !200
  %119 = load ptr, ptr %6, align 8, !tbaa !60
  %120 = load ptr, ptr %3, align 8, !tbaa !55
  %121 = getelementptr inbounds nuw %struct.pmix_cb_t, ptr %120, i32 0, i32 13
  store ptr %119, ptr %121, align 8, !tbaa !84
  store i32 0, ptr %2, align 4
  store i32 1, ptr %10, align 4
  br label %122

122:                                              ; preds = %108, %74, %50, %35, %21
  call void @llvm.lifetime.end.p0(i64 8, ptr %9) #11
  call void @llvm.lifetime.end.p0(i64 8, ptr %8) #11
  call void @llvm.lifetime.end.p0(i64 8, ptr %7) #11
  call void @llvm.lifetime.end.p0(i64 8, ptr %6) #11
  call void @llvm.lifetime.end.p0(i64 8, ptr %5) #11
  call void @llvm.lifetime.end.p0(i64 8, ptr %4) #11
  %123 = load i32, ptr %2, align 4
  ret i32 %123
}