; Function Attrs: nounwind uwtable
define internal fastcc range(i32 -32, 1) i32 @process_values(ptr noundef %0) unnamed_addr #0 {
  %2 = getelementptr inbounds nuw i8, ptr %0, i64 720
  %3 = load ptr, ptr %2, align 8, !tbaa !78
  %.not = icmp eq ptr %3, null
  br i1 %.not, label %13, label %4

4:                                                ; preds = %1
  %5 = getelementptr inbounds nuw i8, ptr %0, i64 1064
  %6 = load volatile i64, ptr %5, align 8, !tbaa !149
  %7 = icmp eq i64 %6, 1
  br i1 %7, label %8, label %13

8:                                                ; preds = %4
  %9 = getelementptr i8, ptr %0, i64 1040
  %.val = load ptr, ptr %9, align 8, !tbaa !150
  %10 = getelementptr inbounds nuw i8, ptr %.val, i64 152
  %11 = load ptr, ptr %10, align 8, !tbaa !153
  %12 = getelementptr inbounds nuw i8, ptr %0, i64 728
  store ptr %11, ptr %12, align 8, !tbaa !86
  store ptr null, ptr %10, align 8, !tbaa !153
  br label %52

13:                                               ; preds = %4, %1
  %14 = tail call ptr @PMIx_Value_create(i64 noundef 1) #14
  %15 = icmp eq ptr %14, null
  br i1 %15, label %52, label %16

16:                                               ; preds = %13
  store i16 39, ptr %14, align 8, !tbaa !110
  %17 = tail call noalias dereferenceable_or_null(24) ptr @malloc(i64 noundef 24) #15
  %18 = getelementptr inbounds nuw i8, ptr %14, i64 8
  store ptr %17, ptr %18, align 8, !tbaa !47
  %19 = icmp eq ptr %17, null
  br i1 %19, label %20, label %21

20:                                               ; preds = %16
  tail call void @PMIx_Value_free(ptr noundef nonnull %14, i64 noundef 1) #14
  br label %52

21:                                               ; preds = %16
  store i16 24, ptr %17, align 8, !tbaa !171
  %22 = getelementptr inbounds nuw i8, ptr %17, i64 8
  %23 = getelementptr inbounds nuw i8, ptr %0, i64 1064
  tail call void @llvm.memset.p0.i64(ptr noundef nonnull align 8 dereferenceable(16) %22, i8 0, i64 16, i1 false)
  %24 = load volatile i64, ptr %23, align 8, !tbaa !149
  %25 = tail call ptr @PMIx_Info_create(i64 noundef %24) #14
  %26 = icmp eq ptr %25, null
  br i1 %26, label %27, label %28

27:                                               ; preds = %21
  tail call void @PMIx_Value_free(ptr noundef nonnull %14, i64 noundef 1) #14
  br label %52

28:                                               ; preds = %21
  %29 = getelementptr inbounds nuw i8, ptr %0, i64 920
  %30 = getelementptr inbounds nuw i8, ptr %0, i64 1040
  %.03742 = load ptr, ptr %30, align 8, !tbaa !152
  %.not4143 = icmp eq ptr %.03742, %29
  br i1 %.not4143, label %._crit_edge, label %.lr.ph

.lr.ph:                                           ; preds = %28, %pmix_strncpy.exit
  %.03745 = phi ptr [ %.037, %pmix_strncpy.exit ], [ %.03742, %28 ]
  %.044 = phi i64 [ %45, %pmix_strncpy.exit ], [ 0, %28 ]
  %31 = getelementptr inbounds nuw %struct.pmix_info, ptr %25, i64 %.044
  %32 = getelementptr inbounds nuw i8, ptr %.03745, i64 144
  %33 = load ptr, ptr %32, align 8, !tbaa !173
  br label %34

34:                                               ; preds = %37, %.lr.ph
  %.012.i = phi i64 [ 0, %.lr.ph ], [ %38, %37 ]
  %.0811.i = phi ptr [ %31, %.lr.ph ], [ %40, %37 ]
  %.0910.i = phi ptr [ %33, %.lr.ph ], [ %39, %37 ]
  %35 = load i8, ptr %.0910.i, align 1, !tbaa !47
  store i8 %35, ptr %.0811.i, align 1, !tbaa !47
  %36 = icmp eq i8 %35, 0
  br i1 %36, label %pmix_strncpy.exit, label %37

37:                                               ; preds = %34
  %38 = add nuw nsw i64 %.012.i, 1
  %39 = getelementptr inbounds nuw i8, ptr %.0910.i, i64 1
  %40 = getelementptr inbounds nuw i8, ptr %.0811.i, i64 1
  %exitcond.not.i = icmp eq i64 %38, 511
  br i1 %exitcond.not.i, label %pmix_strncpy.exit, label %34, !llvm.loop !174

pmix_strncpy.exit:                                ; preds = %34, %37
  %.08.lcssa.i = phi ptr [ %.0811.i, %34 ], [ %40, %37 ]
  store i8 0, ptr %.08.lcssa.i, align 1, !tbaa !47
  %41 = getelementptr inbounds nuw i8, ptr %31, i64 520
  %42 = getelementptr inbounds nuw i8, ptr %.03745, i64 152
  %43 = load ptr, ptr %42, align 8, !tbaa !153
  %44 = tail call i32 @PMIx_Value_xfer(ptr noundef nonnull %41, ptr noundef %43) #14
  %45 = add i64 %.044, 1
  %46 = getelementptr inbounds nuw i8, ptr %.03745, i64 120
  %.037 = load ptr, ptr %46, align 8, !tbaa !152
  %.not41 = icmp eq ptr %.037, %29
  br i1 %.not41, label %._crit_edge, label %.lr.ph, !llvm.loop !175

._crit_edge:                                      ; preds = %pmix_strncpy.exit, %28
  %47 = load ptr, ptr %18, align 8, !tbaa !47
  %48 = getelementptr inbounds nuw i8, ptr %47, i64 8
  store i64 %24, ptr %48, align 8, !tbaa !176
  %49 = load ptr, ptr %18, align 8, !tbaa !47
  %50 = getelementptr inbounds nuw i8, ptr %49, i64 16
  store ptr %25, ptr %50, align 8, !tbaa !177
  %51 = getelementptr inbounds nuw i8, ptr %0, i64 728
  store ptr %14, ptr %51, align 8, !tbaa !86
  br label %52

52:                                               ; preds = %13, %._crit_edge, %27, %20, %8
  %.036 = phi i32 [ 0, %8 ], [ -32, %20 ], [ -32, %27 ], [ 0, %._crit_edge ], [ -32, %13 ]
  ret i32 %.036
}